; Function Attrs: mustprogress nofree norecurse nosync nounwind willreturn memory(argmem: readwrite) uwtable
define dso_local noundef nonnull align 8 dereferenceable(40) ptr @_ZN3igl3xml15XMLSerializableaSERKS1_(ptr noundef nonnull returned align 8 captures(address, ret: address, provenance) dereferenceable(40) %0, ptr noundef nonnull readnone align 8 captures(address) dereferenceable(40) %1) local_unnamed_addr #7 align 2 personality ptr @__gxx_personality_v0 {
  %.not = icmp eq ptr %0, %1
  br i1 %.not, label %_ZNSt6vectorIPN3igl3xml19XMLSerializableBaseESaIS3_EE5clearEv.exit, label %3

3:                                                ; preds = %2
  %4 = getelementptr inbounds nuw i8, ptr %0, i64 8
  %5 = load i8, ptr %4, align 8, !tbaa !7, !range !20, !noundef !21
  %6 = trunc nuw i8 %5 to i1
  br i1 %6, label %7, label %_ZNSt6vectorIPN3igl3xml19XMLSerializableBaseESaIS3_EE5clearEv.exit

7:                                                ; preds = %3
  store i8 0, ptr %4, align 8, !tbaa !7
  %8 = getelementptr inbounds nuw i8, ptr %0, i64 16
  %9 = load ptr, ptr %8, align 8, !tbaa !22
  %10 = getelementptr inbounds nuw i8, ptr %0, i64 24
  %11 = load ptr, ptr %10, align 8, !tbaa !23
  %.not.i.i = icmp eq ptr %11, %9
  br i1 %.not.i.i, label %_ZNSt6vectorIPN3igl3xml19XMLSerializableBaseESaIS3_EE5clearEv.exit, label %_ZSt8_DestroyIPPN3igl3xml19XMLSerializableBaseES3_EvT_S5_RSaIT0_E.exit.i.i

_ZSt8_DestroyIPPN3igl3xml19XMLSerializableBaseES3_EvT_S5_RSaIT0_E.exit.i.i: ; preds = %7
  store ptr %9, ptr %10, align 8, !tbaa !23
  br label %_ZNSt6vectorIPN3igl3xml19XMLSerializableBaseESaIS3_EE5clearEv.exit

_ZNSt6vectorIPN3igl3xml19XMLSerializableBaseESaIS3_EE5clearEv.exit: ; preds = %_ZSt8_DestroyIPPN3igl3xml19XMLSerializableBaseES3_EvT_S5_RSaIT0_E.exit.i.i, %7, %3, %2
  ret ptr %0
}